target datalayout = "e-m:e-p270:32:32-p271:32:32-p272:64:64-i64:64-i128:128-f80:128-n8:16:32:64-S128"
target triple = "x86_64-pc-linux-gnu"

%struct.satoko_opts = type { i64, i64, double, double, i32, i32, i32, i32, i32, i32, i32, float, double, float, i32, i64, i32, i32, float, i8, i8 }

@.str = private unnamed_addr constant [8 x i8] c"-C %d  \00", align 1
@.str.1 = private unnamed_addr constant [10 x i8] c"-V %.3f  \00", align 1
@.str.2 = private unnamed_addr constant [10 x i8] c"-W %.3f  \00", align 1
@.str.3 = private unnamed_addr constant [3 x i8] c"-v\00", align 1
@.str.4 = private unnamed_addr constant [2 x i8] c"\0A\00", align 1

; Function Attrs: nounwind uwtable
define void @Cmd_RunAutoTunerPrintOptions(ptr noundef %0) #0 {
  %2 = alloca ptr, align 8
  store ptr %0, ptr %2, align 8, !tbaa !3
  %3 = load ptr, ptr %2, align 8, !tbaa !3
  %4 = getelementptr inbounds nuw %struct.satoko_opts, ptr %3, i32 0, i32 0
  %5 = load i64, ptr %4, align 8, !tbaa !8
  %6 = trunc i64 %5 to i32
  %7 = call i32 (ptr, ...) @printf(ptr noundef @.str, i32 noundef %6)
  %8 = load ptr, ptr %2, align 8, !tbaa !3
  %9 = getelementptr inbounds nuw %struct.satoko_opts, ptr %8, i32 0, i32 12
  %10 = load double, ptr %9, align 8, !tbaa !14
  %11 = fptrunc double %10 to float
  %12 = fpext float %11 to double
  %13 = call i32 (ptr, ...) @printf(ptr noundef @.str.1, double noundef %12)
  %14 = load ptr, ptr %2, align 8, !tbaa !3
  %15 = getelementptr inbounds nuw %struct.satoko_opts, ptr %14, i32 0, i32 13
  %16 = load float, ptr %15, align 8, !tbaa !15
  %17 = fpext float %16 to double
  %18 = call i32 (ptr, ...) @printf(ptr noundef @.str.2, double noundef %17)
  %19 = load ptr, ptr %2, align 8, !tbaa !3
  %20 = getelementptr inbounds nuw %struct.satoko_opts, ptr %19, i32 0, i32 19
  %21 = load i8, ptr %20, align 4, !tbaa !16
  %22 = icmp ne i8 %21, 0
  br i1 %22, label %23, label %25

23:                                               ; preds = %1
  %24 = call i32 (ptr, ...) @printf(ptr noundef @.str.3)
  br label %25

25:                                               ; preds = %23, %1
  %26 = call i32 (ptr, ...) @printf(ptr noundef @.str.4)
  ret void
}