; Function Attrs: nofree nounwind uwtable
define void @Cmd_RunAutoTunerPrintOptions(ptr noundef readonly captures(none) %0) local_unnamed_addr #0 {
  %2 = load i64, ptr %0, align 8, !tbaa !3
  %3 = trunc i64 %2 to i32
  %4 = tail call i32 (ptr, ...) @printf(ptr noundef nonnull dereferenceable(1) @.str, i32 noundef %3)
  %5 = getelementptr inbounds nuw i8, ptr %0, i64 64
  %6 = load double, ptr %5, align 8, !tbaa !11
  %7 = fptrunc double %6 to float
  %8 = fpext float %7 to double
  %9 = tail call i32 (ptr, ...) @printf(ptr noundef nonnull dereferenceable(1) @.str.1, double noundef %8)
  %10 = getelementptr inbounds nuw i8, ptr %0, i64 72
  %11 = load float, ptr %10, align 8, !tbaa !12
  %12 = fpext float %11 to double
  %13 = tail call i32 (ptr, ...) @printf(ptr noundef nonnull dereferenceable(1) @.str.2, double noundef %12)
  %14 = getelementptr inbounds nuw i8, ptr %0, i64 100
  %15 = load i8, ptr %14, align 4, !tbaa !13
  %.not = icmp eq i8 %15, 0
  br i1 %.not, label %18, label %16

16:                                               ; preds = %1
  %17 = tail call i32 (ptr, ...) @printf(ptr noundef nonnull dereferenceable(1) @.str.3)
  br label %18

18:                                               ; preds = %16, %1
  %putchar = tail call i32 @putchar(i32 10)
  ret void
}